; Function Attrs: mustprogress uwtable
define void @_Z42grpc_validate_header_nonbin_value_is_legalRK10grpc_slice(ptr dead_on_unwind noalias writable sret(%"class.absl::lts_20240722::Status") align 8 %0, ptr noundef nonnull readonly align 8 dereferenceable(32) %1) local_unnamed_addr #4 personality ptr @__gxx_personality_v0 {
  %3 = load ptr, ptr %1, align 8, !tbaa !8
  %.not.i = icmp eq ptr %3, null
  %4 = getelementptr inbounds nuw i8, ptr %1, i64 16
  %5 = load ptr, ptr %4, align 8
  %6 = getelementptr inbounds nuw i8, ptr %1, i64 9
  %7 = select i1 %.not.i, ptr %6, ptr %5
  %8 = getelementptr inbounds nuw i8, ptr %1, i64 8
  %9 = load i64, ptr %8, align 8
  %10 = and i64 %9, 255
  %11 = select i1 %.not.i, i64 %10, i64 %9
  %12 = getelementptr inbounds nuw i8, ptr %7, i64 %11
  %.not16.i = icmp samesign eq i64 %11, 0
  br i1 %.not16.i, label %.loopexit, label %.lr.ph.i

13:                                               ; preds = %.lr.ph.i
  %14 = getelementptr inbounds nuw i8, ptr %.01317.i, i64 1
  %.not.i1 = icmp eq ptr %14, %12
  br i1 %.not.i1, label %.loopexit, label %.lr.ph.i

.lr.ph.i:                                         ; preds = %2, %13
  %.01317.i = phi ptr [ %14, %13 ], [ %7, %2 ]
  %15 = load i8, ptr %.01317.i, align 1, !tbaa !3
  %16 = zext i8 %15 to i64
  %17 = lshr i64 %16, 6
  %18 = getelementptr inbounds nuw [4 x i64], ptr @_ZN12_GLOBAL__N_133g_legal_header_non_bin_value_bitsE, i64 0, i64 %17
  %19 = load i64, ptr %18, align 8, !tbaa !6
  %20 = and i64 %16, 63
  %21 = shl nuw i64 1, %20
  %22 = and i64 %21, %19
  %.not15.i = icmp eq i64 %22, 0
  br i1 %.not15.i, label %_ZN9grpc_core30ValidateMetadataResultToStringENS_22ValidateMetadataResultE.exit.i, label %13

.loopexit:                                        ; preds = %13, %2
  store i64 1, ptr %0, align 8, !tbaa !12, !alias.scope !26
  br label %_ZN9grpc_core12_GLOBAL__N_115UpgradeToStatusENS_22ValidateMetadataResultE.exit

_ZN9grpc_core30ValidateMetadataResultToStringENS_22ValidateMetadataResultE.exit.i: ; preds = %.lr.ph.i
  tail call void @_ZN4absl12lts_2024072213InternalErrorESt17basic_string_viewIcSt11char_traitsIcEE(ptr dead_on_unwind writable sret(%"class.absl::lts_20240722::Status") align 8 %0, i64 20, ptr nonnull @.str.4)
  br label %_ZN9grpc_core12_GLOBAL__N_115UpgradeToStatusENS_22ValidateMetadataResultE.exit

_ZN9grpc_core12_GLOBAL__N_115UpgradeToStatusENS_22ValidateMetadataResultE.exit: ; preds = %.loopexit, %_ZN9grpc_core30ValidateMetadataResultToStringENS_22ValidateMetadataResultE.exit.i
  ret void
}